; Function Attrs: mustprogress uwtable
define hidden void @_ZN2qe15simplify_existsER10ref_vectorI3app11ast_managerER7obj_refI4exprS2_E(ptr noundef nonnull align 8 dereferenceable(16) %vars, ptr noundef nonnull align 8 dereferenceable(16) %fml) local_unnamed_addr #3 personality ptr @__gxx_personality_v0 {
entry:
  %ctx = alloca %"class.qe::simplify_solver_context", align 8
  %m_manager.i = getelementptr inbounds i8, ptr %fml, i64 8
  %0 = load ptr, ptr %m_manager.i, align 8
  call void @_ZN2qe23simplify_solver_contextC2ER11ast_manager(ptr noundef nonnull align 8 dereferenceable(928) %ctx, ptr noundef nonnull align 8 dereferenceable(976) %0)
  invoke void @_ZN2qe23simplify_solver_context5solveER7obj_refI4expr11ast_managerER10ref_vectorI3appS3_E(ptr noundef nonnull align 8 dereferenceable(928) %ctx, ptr noundef nonnull align 8 dereferenceable(16) %fml, ptr noundef nonnull align 8 dereferenceable(16) %vars)
          to label %invoke.cont unwind label %lpad

invoke.cont:                                      ; preds = %entry
  call void @_ZN2qe23simplify_solver_contextD2Ev(ptr noundef nonnull align 8 dereferenceable(928) %ctx) #24
  ret void

lpad:                                             ; preds = %entry
  %1 = landingpad { ptr, i32 }
          cleanup
  call void @_ZN2qe23simplify_solver_contextD2Ev(ptr noundef nonnull align 8 dereferenceable(928) %ctx) #24
  resume { ptr, i32 } %1
}